target datalayout = "e-m:e-p270:32:32-p271:32:32-p272:64:64-i64:64-i128:128-f80:128-n8:16:32:64-S128"
target triple = "x86_64-pc-linux-gnu"

%struct.dirent = type { i64, i64, i16, i8, [256 x i8] }

@.str.2 = private unnamed_addr constant [2 x i8] c".\00", align 1
@.str.3 = private unnamed_addr constant [3 x i8] c"..\00", align 1

; Function Attrs: nounwind uwtable
define zeroext i1 @pmix_os_dirpath_is_empty(ptr noundef %0) #0 {
  %2 = alloca i1, align 1
  %3 = alloca ptr, align 8
  %4 = alloca ptr, align 8
  %5 = alloca ptr, align 8
  %6 = alloca i32, align 4
  store ptr %0, ptr %3, align 8, !tbaa !3
  call void @llvm.lifetime.start.p0(i64 8, ptr %4) #7
  call void @llvm.lifetime.start.p0(i64 8, ptr %5) #7
  %7 = load ptr, ptr %3, align 8, !tbaa !3
  %8 = icmp ne ptr null, %7
  br i1 %8, label %9, label %39

9:                                                ; preds = %1
  %10 = load ptr, ptr %3, align 8, !tbaa !3
  %11 = call ptr @opendir(ptr noundef %10)
  store ptr %11, ptr %4, align 8, !tbaa !18
  %12 = load ptr, ptr %4, align 8, !tbaa !18
  %13 = icmp ne ptr null, %12
  br i1 %13, label %14, label %38

14:                                               ; preds = %9
  br label %15

15:                                               ; preds = %34, %14
  %16 = load ptr, ptr %4, align 8, !tbaa !18
  %17 = call ptr @readdir(ptr noundef %16)
  store ptr %17, ptr %5, align 8, !tbaa !20
  %18 = icmp ne ptr %17, null
  br i1 %18, label %19, label %35

19:                                               ; preds = %15
  %20 = load ptr, ptr %5, align 8, !tbaa !20
  %21 = getelementptr inbounds nuw %struct.dirent, ptr %20, i32 0, i32 4
  %22 = getelementptr inbounds [256 x i8], ptr %21, i64 0, i64 0
  %23 = call i32 @strcmp(ptr noundef %22, ptr noundef @.str.2) #9
  %24 = icmp ne i32 0, %23
  br i1 %24, label %25, label %34

25:                                               ; preds = %19
  %26 = load ptr, ptr %5, align 8, !tbaa !20
  %27 = getelementptr inbounds nuw %struct.dirent, ptr %26, i32 0, i32 4
  %28 = getelementptr inbounds [256 x i8], ptr %27, i64 0, i64 0
  %29 = call i32 @strcmp(ptr noundef %28, ptr noundef @.str.3) #9
  %30 = icmp ne i32 0, %29
  br i1 %30, label %31, label %34

31:                                               ; preds = %25
  %32 = load ptr, ptr %4, align 8, !tbaa !18
  %33 = call i32 @closedir(ptr noundef %32)
  store i1 false, ptr %2, align 1
  store i32 1, ptr %6, align 4
  br label %40

34:                                               ; preds = %25, %19
  br label %15, !llvm.loop !36

35:                                               ; preds = %15
  %36 = load ptr, ptr %4, align 8, !tbaa !18
  %37 = call i32 @closedir(ptr noundef %36)
  store i1 true, ptr %2, align 1
  store i32 1, ptr %6, align 4
  br label %40

38:                                               ; preds = %9
  store i1 false, ptr %2, align 1
  store i32 1, ptr %6, align 4
  br label %40

39:                                               ; preds = %1
  store i1 true, ptr %2, align 1
  store i32 1, ptr %6, align 4
  br label %40

40:                                               ; preds = %39, %38, %35, %31
  call void @llvm.lifetime.end.p0(i64 8, ptr %5) #7
  call void @llvm.lifetime.end.p0(i64 8, ptr %4) #7
  %41 = load i1, ptr %2, align 1
  ret i1 %41
}