; Function Attrs: nounwind uwtable
define noundef zeroext i1 @pmix_os_dirpath_is_empty(ptr noundef readonly captures(address_is_null) %0) local_unnamed_addr #0 {
  %.not = icmp eq ptr %0, null
  br i1 %.not, label %19, label %2

2:                                                ; preds = %1
  %3 = tail call ptr @opendir(ptr noundef nonnull %0)
  %.not11 = icmp eq ptr %3, null
  br i1 %.not11, label %19, label %.preheader

.preheader:                                       ; preds = %2
  %4 = tail call ptr @readdir(ptr noundef nonnull %3) #10
  %.not1219 = icmp eq ptr %4, null
  br i1 %.not1219, label %.sink.split, label %sub_0

sub_0:                                            ; preds = %.preheader, %16
  %5 = phi ptr [ %17, %16 ], [ %4, %.preheader ]
  %6 = getelementptr inbounds nuw i8, ptr %5, i64 19
  %7 = load i8, ptr %6, align 1
  %.not20 = icmp eq i8 %7, 46
  br i1 %.not20, label %.tail, label %.sink.split

.tail:                                            ; preds = %sub_0
  %8 = getelementptr inbounds nuw i8, ptr %5, i64 20
  %9 = load i8, ptr %8, align 1
  %10 = icmp eq i8 %9, 0
  br i1 %10, label %16, label %sub_117

sub_117:                                          ; preds = %.tail
  %11 = getelementptr inbounds nuw i8, ptr %5, i64 20
  %12 = load i8, ptr %11, align 1
  %.not22 = icmp eq i8 %12, 46
  br i1 %.not22, label %.tail15, label %.sink.split

.tail15:                                          ; preds = %sub_117
  %13 = getelementptr inbounds nuw i8, ptr %5, i64 21
  %14 = load i8, ptr %13, align 1
  %15 = icmp eq i8 %14, 0
  br i1 %15, label %16, label %.sink.split

16:                                               ; preds = %.tail15, %.tail
  %17 = tail call ptr @readdir(ptr noundef nonnull %3) #10
  %.not12 = icmp eq ptr %17, null
  br i1 %.not12, label %.sink.split, label %sub_0, !llvm.loop !27

.sink.split:                                      ; preds = %16, %.tail15, %sub_117, %sub_0, %.preheader
  %.0.ph = phi i1 [ true, %.preheader ], [ false, %sub_0 ], [ false, %sub_117 ], [ false, %.tail15 ], [ true, %16 ]
  %18 = tail call i32 @closedir(ptr noundef nonnull %3)
  br label %19

19:                                               ; preds = %.sink.split, %1, %2
  %.0 = phi i1 [ false, %2 ], [ true, %1 ], [ %.0.ph, %.sink.split ]
  ret i1 %.0
}